; Function Attrs: mustprogress uwtable
define dso_local void @_ZN9cmFileSet11CopyEntriesEPKS_(ptr noundef nonnull align 8 dereferenceable(128) %0, ptr noundef readonly captures(none) %1) local_unnamed_addr #6 align 2 {
  %3 = getelementptr inbounds nuw i8, ptr %0, i64 80
  %4 = getelementptr inbounds nuw i8, ptr %1, i64 80
  %5 = getelementptr inbounds nuw i8, ptr %0, i64 88
  %6 = load ptr, ptr %5, align 8, !tbaa !43
  %7 = load ptr, ptr %4, align 8, !tbaa !43
  %8 = getelementptr inbounds nuw i8, ptr %1, i64 88
  %9 = load ptr, ptr %8, align 8, !tbaa !43
  %10 = load ptr, ptr %3, align 8, !tbaa !43
  %11 = ptrtoint ptr %6 to i64
  %12 = ptrtoint ptr %10 to i64
  %13 = sub i64 %11, %12
  %14 = getelementptr inbounds i8, ptr %10, i64 %13
  tail call void @_ZNSt6vectorI2BTINSt7__cxx1112basic_stringIcSt11char_traitsIcESaIcEEEESaIS7_EE15_M_range_insertIN9__gnu_cxx17__normal_iteratorIPKS7_S9_EEEEvNSC_IPS7_S9_EET_SI_St20forward_iterator_tag(ptr noundef nonnull align 8 dereferenceable(24) %3, ptr %14, ptr %7, ptr %9)
  %15 = getelementptr inbounds nuw i8, ptr %0, i64 104
  %16 = getelementptr inbounds nuw i8, ptr %1, i64 104
  %17 = getelementptr inbounds nuw i8, ptr %0, i64 112
  %18 = load ptr, ptr %17, align 8, !tbaa !43
  %19 = load ptr, ptr %16, align 8, !tbaa !43
  %20 = getelementptr inbounds nuw i8, ptr %1, i64 112
  %21 = load ptr, ptr %20, align 8, !tbaa !43
  %22 = load ptr, ptr %15, align 8, !tbaa !43
  %23 = ptrtoint ptr %18 to i64
  %24 = ptrtoint ptr %22 to i64
  %25 = sub i64 %23, %24
  %26 = getelementptr inbounds i8, ptr %22, i64 %25
  tail call void @_ZNSt6vectorI2BTINSt7__cxx1112basic_stringIcSt11char_traitsIcESaIcEEEESaIS7_EE15_M_range_insertIN9__gnu_cxx17__normal_iteratorIPKS7_S9_EEEEvNSC_IPS7_S9_EET_SI_St20forward_iterator_tag(ptr noundef nonnull align 8 dereferenceable(24) %15, ptr %26, ptr %19, ptr %21)
  ret void
}